target datalayout = "e-m:e-p270:32:32-p271:32:32-p272:64:64-i64:64-i128:128-f80:128-n8:16:32:64-S128"
target triple = "x86_64-pc-linux-gnu"

%"class.(anonymous namespace)::GridTest" = type { %"class.testing::Test", ptr, ptr }
%"class.testing::Test" = type { ptr, %"class.std::unique_ptr" }
%"class.std::unique_ptr" = type { %"struct.std::__uniq_ptr_data" }
%"struct.std::__uniq_ptr_data" = type { %"class.std::__uniq_ptr_impl" }
%"class.std::__uniq_ptr_impl" = type { %"class.std::tuple" }
%"class.std::tuple" = type { %"struct.std::_Tuple_impl" }
%"struct.std::_Tuple_impl" = type { %"struct.std::_Head_base.10" }
%"struct.std::_Head_base.10" = type { ptr }

; Function Attrs: mustprogress uwtable
define internal void @_ZN12_GLOBAL__N_18GridTest8TearDownEv(ptr noundef nonnull align 8 dereferenceable(32) %0) unnamed_addr #6 align 2 {
  %2 = alloca ptr, align 8
  store ptr %0, ptr %2, align 8, !tbaa !67
  %3 = load ptr, ptr %2, align 8
  %4 = getelementptr inbounds nuw %"class.(anonymous namespace)::GridTest", ptr %3, i32 0, i32 1
  %5 = load ptr, ptr %4, align 8, !tbaa !69
  %6 = call ptr @proj_context_destroy(ptr noundef %5)
  %7 = getelementptr inbounds nuw %"class.(anonymous namespace)::GridTest", ptr %3, i32 0, i32 2
  %8 = load ptr, ptr %7, align 8, !tbaa !80
  %9 = call ptr @proj_context_destroy(ptr noundef %8)
  ret void
}