; Function Attrs: mustprogress uwtable
define internal void @_ZN12_GLOBAL__N_18GridTest8TearDownEv(ptr noundef nonnull readonly align 8 captures(none) dereferenceable(32) %0) unnamed_addr #4 align 2 {
  %2 = getelementptr inbounds nuw i8, ptr %0, i64 16
  %3 = load ptr, ptr %2, align 8, !tbaa !7
  %4 = tail call ptr @proj_context_destroy(ptr noundef %3)
  %5 = getelementptr inbounds nuw i8, ptr %0, i64 24
  %6 = load ptr, ptr %5, align 8, !tbaa !20
  %7 = tail call ptr @proj_context_destroy(ptr noundef %6)
  ret void
}